target datalayout = "e-m:e-p270:32:32-p271:32:32-p272:64:64-i64:64-i128:128-f80:128-n8:16:32:64-S128"
target triple = "x86_64-pc-linux-gnu"

%class.btSequentialImpulseConstraintSolver = type { %class.btConstraintSolver, %class.btAlignedObjectArray, %class.btAlignedObjectArray.0, %class.btAlignedObjectArray.0, %class.btAlignedObjectArray.0, %class.btAlignedObjectArray.0, %class.btAlignedObjectArray.2, %class.btAlignedObjectArray.2, %class.btAlignedObjectArray.2, %class.btAlignedObjectArray.4, i32, i32, %class.btAlignedObjectArray.2, ptr, ptr, ptr, i32, float, i64, %struct.btSolverAnalyticsData }
%class.btConstraintSolver = type { ptr }
%class.btAlignedObjectArray = type <{ [4 x i8], i32, i32, [4 x i8], ptr, i8, [7 x i8] }>
%class.btAlignedObjectArray.0 = type <{ [4 x i8], i32, i32, [4 x i8], ptr, i8, [7 x i8] }>
%class.btAlignedObjectArray.4 = type <{ [4 x i8], i32, i32, [4 x i8], ptr, i8, [7 x i8] }>
%struct.btSolverAnalyticsData = type { i32, i32, i32, i32, i32, double }
%class.btAlignedObjectArray.2 = type <{ [4 x i8], i32, i32, [4 x i8], ptr, i8, [7 x i8] }>
%class.btVector3 = type { [4 x float] }
%struct.btSolverConstraint = type { %class.btVector3, %class.btVector3, %class.btVector3, %class.btVector3, %class.btVector3, %class.btVector3, float, float, float, float, float, float, float, float, float, %union.anon.12, i32, i32, i32, i32 }
%union.anon.12 = type { ptr }
%struct.btSolverBody = type { %class.btTransform, %class.btVector3, %class.btVector3, %class.btVector3, %class.btVector3, %class.btVector3, %class.btVector3, %class.btVector3, %class.btVector3, %class.btVector3, %class.btVector3, %class.btVector3, ptr }
%class.btTransform = type { %class.btMatrix3x3, %class.btVector3 }
%class.btMatrix3x3 = type { [3 x %class.btVector3] }

; Function Attrs: inlinehint mustprogress nounwind uwtable
define linkonce_odr dso_local noundef nonnull align 8 dereferenceable(248) ptr @_ZN20btAlignedObjectArrayI12btSolverBodyEixEi(ptr noundef nonnull align 8 dereferenceable(25) %0, i32 noundef %1) #4 comdat align 2 {
  %3 = alloca ptr, align 8
  %4 = alloca i32, align 4
  store ptr %0, ptr %3, align 8, !tbaa !101
  store i32 %1, ptr %4, align 4, !tbaa !9
  %5 = load ptr, ptr %3, align 8
  %6 = getelementptr inbounds nuw %class.btAlignedObjectArray, ptr %5, i32 0, i32 4
  %7 = load ptr, ptr %6, align 8, !tbaa !103
  %8 = load i32, ptr %4, align 4, !tbaa !9
  %9 = sext i32 %8 to i64
  %10 = getelementptr inbounds %struct.btSolverBody, ptr %7, i64 %9
  ret ptr %10
}

; Function Attrs: inlinehint mustprogress nounwind uwtable
define linkonce_odr dso_local noundef nonnull align 8 dereferenceable(160) ptr @_ZN20btAlignedObjectArrayI18btSolverConstraintEixEi(ptr noundef nonnull align 8 dereferenceable(25) %0, i32 noundef %1) #4 comdat align 2 {
  %3 = alloca ptr, align 8
  %4 = alloca i32, align 4
  store ptr %0, ptr %3, align 8, !tbaa !98
  store i32 %1, ptr %4, align 4, !tbaa !9
  %5 = load ptr, ptr %3, align 8
  %6 = getelementptr inbounds nuw %class.btAlignedObjectArray.0, ptr %5, i32 0, i32 4
  %7 = load ptr, ptr %6, align 8, !tbaa !100
  %8 = load i32, ptr %4, align 4, !tbaa !9
  %9 = sext i32 %8 to i64
  %10 = getelementptr inbounds %struct.btSolverConstraint, ptr %7, i64 %9
  ret ptr %10
}

; Function Attrs: inlinehint mustprogress nounwind uwtable
define linkonce_odr dso_local noundef nonnull align 4 dereferenceable(4) ptr @_ZNK20btAlignedObjectArrayIiEixEi(ptr noundef nonnull align 8 dereferenceable(25) %0, i32 noundef %1) #4 comdat align 2 {
  %3 = alloca ptr, align 8
  %4 = alloca i32, align 4
  store ptr %0, ptr %3, align 8, !tbaa !56
  store i32 %1, ptr %4, align 4, !tbaa !9
  %5 = load ptr, ptr %3, align 8
  %6 = getelementptr inbounds nuw %class.btAlignedObjectArray.2, ptr %5, i32 0, i32 4
  %7 = load ptr, ptr %6, align 8, !tbaa !106
  %8 = load i32, ptr %4, align 4, !tbaa !9
  %9 = sext i32 %8 to i64
  %10 = getelementptr inbounds i32, ptr %7, i64 %9
  ret ptr %10
}

; Function Attrs: mustprogress uwtable
define dso_local noundef float @_ZN37btSequentialImpulseConstraintSolverMt31resolveMultipleJointConstraintsERK20btAlignedObjectArrayIiEiii(ptr noundef nonnull align 8 dereferenceable(920) %0, ptr noundef nonnull align 8 dereferenceable(25) %1, i32 noundef %2, i32 noundef %3, i32 noundef %4) #2 align 2 {
  %6 = alloca ptr, align 8
  %7 = alloca ptr, align 8
  %8 = alloca i32, align 4
  %9 = alloca i32, align 4
  %10 = alloca i32, align 4
  %11 = alloca float, align 4
  %12 = alloca i32, align 4
  %13 = alloca i32, align 4
  %14 = alloca ptr, align 8
  %15 = alloca ptr, align 8
  %16 = alloca ptr, align 8
  %17 = alloca float, align 4
  store ptr %0, ptr %6, align 8, !tbaa !12
  store ptr %1, ptr %7, align 8, !tbaa !56
  store i32 %2, ptr %8, align 4, !tbaa !9
  store i32 %3, ptr %9, align 4, !tbaa !9
  store i32 %4, ptr %10, align 4, !tbaa !9
  %18 = load ptr, ptr %6, align 8
  call void @llvm.lifetime.start.p0(i64 4, ptr %11) #16
  store float 0.000000e+00, ptr %11, align 4, !tbaa !85
  call void @llvm.lifetime.start.p0(i64 4, ptr %12) #16
  %19 = load i32, ptr %8, align 4, !tbaa !9
  store i32 %19, ptr %12, align 4, !tbaa !9
  br label %20

20:                                               ; preds = %58, %5
  %21 = load i32, ptr %12, align 4, !tbaa !9
  %22 = load i32, ptr %9, align 4, !tbaa !9
  %23 = icmp slt i32 %21, %22
  br i1 %23, label %25, label %24

24:                                               ; preds = %20
  call void @llvm.lifetime.end.p0(i64 4, ptr %12) #16
  br label %61

25:                                               ; preds = %20
  call void @llvm.lifetime.start.p0(i64 4, ptr %13) #16
  %26 = load ptr, ptr %7, align 8, !tbaa !56
  %27 = load i32, ptr %12, align 4, !tbaa !9
  %28 = call noundef nonnull align 4 dereferenceable(4) ptr @_ZNK20btAlignedObjectArrayIiEixEi(ptr noundef nonnull align 8 dereferenceable(25) %26, i32 noundef %27)
  %29 = load i32, ptr %28, align 4, !tbaa !9
  store i32 %29, ptr %13, align 4, !tbaa !9
  call void @llvm.lifetime.start.p0(i64 8, ptr %14) #16
  %30 = getelementptr inbounds nuw %class.btSequentialImpulseConstraintSolver, ptr %18, i32 0, i32 3
  %31 = load i32, ptr %13, align 4, !tbaa !9
  %32 = call noundef nonnull align 8 dereferenceable(160) ptr @_ZN20btAlignedObjectArrayI18btSolverConstraintEixEi(ptr noundef nonnull align 8 dereferenceable(25) %30, i32 noundef %31)
  store ptr %32, ptr %14, align 8, !tbaa !68
  %33 = load i32, ptr %10, align 4, !tbaa !9
  %34 = load ptr, ptr %14, align 8, !tbaa !68
  %35 = getelementptr inbounds nuw %struct.btSolverConstraint, ptr %34, i32 0, i32 16
  %36 = load i32, ptr %35, align 8, !tbaa !272
  %37 = icmp slt i32 %33, %36
  br i1 %37, label %38, label %57

38:                                               ; preds = %25
  call void @llvm.lifetime.start.p0(i64 8, ptr %15) #16
  %39 = getelementptr inbounds nuw %class.btSequentialImpulseConstraintSolver, ptr %18, i32 0, i32 1
  %40 = load ptr, ptr %14, align 8, !tbaa !68
  %41 = getelementptr inbounds nuw %struct.btSolverConstraint, ptr %40, i32 0, i32 18
  %42 = load i32, ptr %41, align 8, !tbaa !69
  %43 = call noundef nonnull align 8 dereferenceable(248) ptr @_ZN20btAlignedObjectArrayI12btSolverBodyEixEi(ptr noundef nonnull align 8 dereferenceable(25) %39, i32 noundef %42)
  store ptr %43, ptr %15, align 8, !tbaa !73
  call void @llvm.lifetime.start.p0(i64 8, ptr %16) #16
  %44 = getelementptr inbounds nuw %class.btSequentialImpulseConstraintSolver, ptr %18, i32 0, i32 1
  %45 = load ptr, ptr %14, align 8, !tbaa !68
  %46 = getelementptr inbounds nuw %struct.btSolverConstraint, ptr %45, i32 0, i32 19
  %47 = load i32, ptr %46, align 4, !tbaa !72
  %48 = call noundef nonnull align 8 dereferenceable(248) ptr @_ZN20btAlignedObjectArrayI12btSolverBodyEixEi(ptr noundef nonnull align 8 dereferenceable(25) %44, i32 noundef %47)
  store ptr %48, ptr %16, align 8, !tbaa !73
  call void @llvm.lifetime.start.p0(i64 4, ptr %17) #16
  %49 = load ptr, ptr %15, align 8, !tbaa !73
  %50 = load ptr, ptr %16, align 8, !tbaa !73
  %51 = load ptr, ptr %14, align 8, !tbaa !68
  %52 = call noundef float @_ZN35btSequentialImpulseConstraintSolver33resolveSingleConstraintRowGenericER12btSolverBodyS1_RK18btSolverConstraint(ptr noundef nonnull align 8 dereferenceable(408) %18, ptr noundef nonnull align 8 dereferenceable(248) %49, ptr noundef nonnull align 8 dereferenceable(248) %50, ptr noundef nonnull align 8 dereferenceable(160) %51)
  store float %52, ptr %17, align 4, !tbaa !85
  %53 = load float, ptr %17, align 4, !tbaa !85
  %54 = load float, ptr %17, align 4, !tbaa !85
  %55 = load float, ptr %11, align 4, !tbaa !85
  %56 = call float @llvm.fmuladd.f32(float %53, float %54, float %55)
  store float %56, ptr %11, align 4, !tbaa !85
  call void @llvm.lifetime.end.p0(i64 4, ptr %17) #16
  call void @llvm.lifetime.end.p0(i64 8, ptr %16) #16
  call void @llvm.lifetime.end.p0(i64 8, ptr %15) #16
  br label %57

57:                                               ; preds = %38, %25
  call void @llvm.lifetime.end.p0(i64 8, ptr %14) #16
  call void @llvm.lifetime.end.p0(i64 4, ptr %13) #16
  br label %58

58:                                               ; preds = %57
  %59 = load i32, ptr %12, align 4, !tbaa !9
  %60 = add nsw i32 %59, 1
  store i32 %60, ptr %12, align 4, !tbaa !9
  br label %20, !llvm.loop !273

61:                                               ; preds = %24
  %62 = load float, ptr %11, align 4, !tbaa !85
  call void @llvm.lifetime.end.p0(i64 4, ptr %11) #16
  ret float %62
}