; Function Attrs: mustprogress uwtable
define dso_local noundef float @_ZN37btSequentialImpulseConstraintSolverMt31resolveMultipleJointConstraintsERK20btAlignedObjectArrayIiEiii(ptr noundef nonnull align 8 dereferenceable(920) %0, ptr noundef nonnull readonly align 8 captures(none) dereferenceable(25) %1, i32 noundef %2, i32 noundef %3, i32 noundef %4) local_unnamed_addr #0 align 2 {
  %6 = icmp slt i32 %2, %3
  br i1 %6, label %.lr.ph, label %._crit_edge

.lr.ph:                                           ; preds = %5
  %7 = getelementptr inbounds nuw i8, ptr %1, i64 16
  %8 = getelementptr inbounds nuw i8, ptr %0, i64 88
  %9 = getelementptr inbounds nuw i8, ptr %0, i64 24
  %10 = sext i32 %2 to i64
  br label %11

._crit_edge:                                      ; preds = %33, %5
  %.0.lcssa = phi float [ 0.000000e+00, %5 ], [ %.1, %33 ]
  ret float %.0.lcssa

11:                                               ; preds = %.lr.ph, %33
  %indvars.iv = phi i64 [ %10, %.lr.ph ], [ %indvars.iv.next, %33 ]
  %.020 = phi float [ 0.000000e+00, %.lr.ph ], [ %.1, %33 ]
  %12 = load ptr, ptr %7, align 8, !tbaa !15
  %13 = getelementptr inbounds i32, ptr %12, i64 %indvars.iv
  %14 = load i32, ptr %13, align 4, !tbaa !67
  %15 = load ptr, ptr %8, align 8, !tbaa !68
  %16 = sext i32 %14 to i64
  %17 = getelementptr inbounds %struct.btSolverConstraint, ptr %15, i64 %16
  %18 = getelementptr inbounds nuw i8, ptr %17, i64 144
  %19 = load i32, ptr %18, align 8, !tbaa !233
  %20 = icmp slt i32 %4, %19
  br i1 %20, label %21, label %33

21:                                               ; preds = %11
  %22 = getelementptr inbounds nuw i8, ptr %17, i64 152
  %23 = load i32, ptr %22, align 8, !tbaa !69
  %24 = load ptr, ptr %9, align 8, !tbaa !73
  %25 = sext i32 %23 to i64
  %26 = getelementptr inbounds %struct.btSolverBody, ptr %24, i64 %25
  %27 = getelementptr inbounds nuw i8, ptr %17, i64 156
  %28 = load i32, ptr %27, align 4, !tbaa !72
  %29 = sext i32 %28 to i64
  %30 = getelementptr inbounds %struct.btSolverBody, ptr %24, i64 %29
  %31 = tail call noundef float @_ZN35btSequentialImpulseConstraintSolver33resolveSingleConstraintRowGenericER12btSolverBodyS1_RK18btSolverConstraint(ptr noundef nonnull align 8 dereferenceable(408) %0, ptr noundef nonnull align 8 dereferenceable(248) %26, ptr noundef nonnull align 8 dereferenceable(248) %30, ptr noundef nonnull align 8 dereferenceable(160) %17)
  %32 = tail call float @llvm.fmuladd.f32(float %31, float %31, float %.020)
  br label %33

33:                                               ; preds = %21, %11
  %.1 = phi float [ %32, %21 ], [ %.020, %11 ]
  %indvars.iv.next = add nsw i64 %indvars.iv, 1
  %lftr.wideiv = trunc i64 %indvars.iv.next to i32
  %exitcond.not = icmp eq i32 %3, %lftr.wideiv
  br i1 %exitcond.not, label %._crit_edge, label %11, !llvm.loop !234
}